---
triple:          'arm64-apple-darwin'
binary-path:     '/Users/raushankumarraman/Documents/Design-Pattern/solid_principle/c++/output/srp'
relocations:
  - { offset: 0x2E51, size: 0x8, addend: 0x0, symName: __ZNSt3__124__put_character_sequenceB8ne180100IcNS_11char_traitsIcEEEERNS_13basic_ostreamIT_T0_EES7_PKS4_m, symObjAddr: 0xA5C, symBinAddr: 0x100002BE4, symSize: 0x1F4 }
  - { offset: 0x3CC1, size: 0x8, addend: 0x0, symName: __ZNSt3__1neB8ne180100IcNS_11char_traitsIcEENS_9allocatorIcEEEEbRKNS_12basic_stringIT_T0_T1_EESB_, symObjAddr: 0x5B8, symBinAddr: 0x100002740, symSize: 0x34 }
  - { offset: 0x3D19, size: 0x8, addend: 0x0, symName: __ZNSt3__1lsB8ne180100INS_11char_traitsIcEEEERNS_13basic_ostreamIcT_EES6_PKc, symObjAddr: 0x5EC, symBinAddr: 0x100002774, symSize: 0x48 }
  - { offset: 0x3D5F, size: 0x8, addend: 0x0, symName: __ZNSt3__1eqB8ne180100INS_9allocatorIcEEEEbRKNS_12basic_stringIcNS_11char_traitsIcEET_EES9_, symObjAddr: 0x634, symBinAddr: 0x1000027BC, symSize: 0x148 }
  - { offset: 0x3DD2, size: 0x8, addend: 0x0, symName: __ZNSt3__112__to_addressB8ne180100IKcEEPT_S3_, symObjAddr: 0x984, symBinAddr: 0x100002B0C, symSize: 0x14 }
  - { offset: 0x3E3A, size: 0x8, addend: 0x0, symName: __ZNSt3__130__libcpp_is_constant_evaluatedB8ne180100Ev, symObjAddr: 0xA50, symBinAddr: 0x100002BD8, symSize: 0xC }
  - { offset: 0x3E57, size: 0x8, addend: 0x0, symName: __ZNSt3__116__pad_and_outputB8ne180100IcNS_11char_traitsIcEEEENS_19ostreambuf_iteratorIT_T0_EES6_PKS4_S8_S8_RNS_8ios_baseES4_, symObjAddr: 0xCB4, symBinAddr: 0x100002E3C, symSize: 0x248 }
  - { offset: 0x3F26, size: 0x8, addend: 0x0, symName: __ZNSt3__19use_facetB8ne180100INS_5ctypeIcEEEERKT_RKNS_6localeE, symObjAddr: 0x135C, symBinAddr: 0x1000034E4, symSize: 0x2C }
  - { offset: 0x43F3, size: 0x8, addend: 0x0, symName: __ZNSt3__118__constexpr_strlenB8ne180100EPKc, symObjAddr: 0x13F4, symBinAddr: 0x10000357C, symSize: 0x24 }
  - { offset: 0x441F, size: 0x8, addend: 0x0, symName: __ZNSt3__1lsB8ne180100IcNS_11char_traitsIcEENS_9allocatorIcEEEERNS_13basic_ostreamIT_T0_EES9_RKNS_12basic_stringIS6_S7_T1_EE, symObjAddr: 0x172C, symBinAddr: 0x1000038B4, symSize: 0x4C }
  - { offset: 0x4477, size: 0x8, addend: 0x0, symName: __ZNSt3__14endlB8ne180100IcNS_11char_traitsIcEEEERNS_13basic_ostreamIT_T0_EES7_, symObjAddr: 0x17A4, symBinAddr: 0x10000392C, symSize: 0x58 }
  - { offset: 0x538F, size: 0x8, addend: 0x0, symName: _main, symObjAddr: 0x0, symBinAddr: 0x100002188, symSize: 0x2B4 }
  - { offset: 0x559F, size: 0x8, addend: 0x0, symName: __ZN14UserManagementC1Ev, symObjAddr: 0x2B4, symBinAddr: 0x10000243C, symSize: 0x2C }
  - { offset: 0x55CE, size: 0x8, addend: 0x0, symName: __ZNSt3__112basic_stringIcNS_11char_traitsIcEENS_9allocatorIcEEEC1B8ne180100ILi0EEEPKc, symObjAddr: 0x2E0, symBinAddr: 0x100002468, symSize: 0x34 }
  - { offset: 0x56F1, size: 0x8, addend: 0x0, symName: __ZN12EmailServiceC1EP4User, symObjAddr: 0x324, symBinAddr: 0x1000024AC, symSize: 0x34 }
  - { offset: 0x5727, size: 0x8, addend: 0x0, symName: __ZN4UserD1Ev, symObjAddr: 0x358, symBinAddr: 0x1000024E0, symSize: 0x2C }
  - { offset: 0x5751, size: 0x8, addend: 0x0, symName: __ZN14UserManagementC2Ev, symObjAddr: 0x384, symBinAddr: 0x10000250C, symSize: 0x3C }
  - { offset: 0x577B, size: 0x8, addend: 0x0, symName: __ZN13InterfaceUserC2Ev, symObjAddr: 0x3C0, symBinAddr: 0x100002548, symSize: 0x24 }
  - { offset: 0x57A5, size: 0x8, addend: 0x0, symName: __ZNK14UserManagement5loginEPK4UserRKNSt3__112basic_stringIcNS3_11char_traitsIcEENS3_9allocatorIcEEEESB_, symObjAddr: 0x3E4, symBinAddr: 0x10000256C, symSize: 0xB0 }
  - { offset: 0x57F3, size: 0x8, addend: 0x0, symName: __ZNK14UserManagement12registerUserERKNSt3__112basic_stringIcNS0_11char_traitsIcEENS0_9allocatorIcEEEES8_S8_S8_, symObjAddr: 0x494, symBinAddr: 0x10000261C, symSize: 0x80 }
  - { offset: 0x585D, size: 0x8, addend: 0x0, symName: __ZN14UserManagementD1Ev, symObjAddr: 0x514, symBinAddr: 0x10000269C, symSize: 0x2C }
  - { offset: 0x5887, size: 0x8, addend: 0x0, symName: __ZN14UserManagementD0Ev, symObjAddr: 0x540, symBinAddr: 0x1000026C8, symSize: 0x58 }
  - { offset: 0x58B1, size: 0x8, addend: 0x0, symName: __ZN13InterfaceUserD1Ev, symObjAddr: 0x598, symBinAddr: 0x100002720, symSize: 0x14 }
  - { offset: 0x58D9, size: 0x8, addend: 0x0, symName: __ZN13InterfaceUserD0Ev, symObjAddr: 0x5AC, symBinAddr: 0x100002734, symSize: 0xC }
  - { offset: 0x5901, size: 0x8, addend: 0x0, symName: __ZNKSt3__112basic_stringIcNS_11char_traitsIcEENS_9allocatorIcEEE4sizeB8ne180100Ev, symObjAddr: 0x77C, symBinAddr: 0x100002904, symSize: 0x54 }
  - { offset: 0x5925, size: 0x8, addend: 0x0, symName: __ZNKSt3__112basic_stringIcNS_11char_traitsIcEENS_9allocatorIcEEE4dataB8ne180100Ev, symObjAddr: 0x7D0, symBinAddr: 0x100002958, symSize: 0x28 }
  - { offset: 0x5949, size: 0x8, addend: 0x0, symName: __ZNKSt3__112basic_stringIcNS_11char_traitsIcEENS_9allocatorIcEEE9__is_longB8ne180100Ev, symObjAddr: 0x7F8, symBinAddr: 0x100002980, symSize: 0x94 }
  - { offset: 0x596D, size: 0x8, addend: 0x0, symName: __ZNSt3__111char_traitsIcE7compareB8ne180100EPKcS3_m, symObjAddr: 0x88C, symBinAddr: 0x100002A14, symSize: 0x64 }
  - { offset: 0x59AB, size: 0x8, addend: 0x0, symName: __ZNKSt3__112basic_stringIcNS_11char_traitsIcEENS_9allocatorIcEEE15__get_long_sizeB8ne180100Ev, symObjAddr: 0x8F0, symBinAddr: 0x100002A78, symSize: 0x28 }
  - { offset: 0x59CF, size: 0x8, addend: 0x0, symName: __ZNKSt3__112basic_stringIcNS_11char_traitsIcEENS_9allocatorIcEEE16__get_short_sizeB8ne180100Ev, symObjAddr: 0x918, symBinAddr: 0x100002AA0, symSize: 0x34 }
  - { offset: 0x59F3, size: 0x8, addend: 0x0, symName: __ZNKSt3__117__compressed_pairINS_12basic_stringIcNS_11char_traitsIcEENS_9allocatorIcEEE5__repES5_E5firstB8ne180100Ev, symObjAddr: 0x94C, symBinAddr: 0x100002AD4, symSize: 0x24 }
  - { offset: 0x5A17, size: 0x8, addend: 0x0, symName: __ZNKSt3__122__compressed_pair_elemINS_12basic_stringIcNS_11char_traitsIcEENS_9allocatorIcEEE5__repELi0ELb0EE5__getB8ne180100Ev, symObjAddr: 0x970, symBinAddr: 0x100002AF8, symSize: 0x14 }
  - { offset: 0x5A3B, size: 0x8, addend: 0x0, symName: __ZNKSt3__112basic_stringIcNS_11char_traitsIcEENS_9allocatorIcEEE13__get_pointerB8ne180100Ev, symObjAddr: 0x998, symBinAddr: 0x100002B20, symSize: 0x54 }
  - { offset: 0x5A5F, size: 0x8, addend: 0x0, symName: __ZNKSt3__112basic_stringIcNS_11char_traitsIcEENS_9allocatorIcEEE18__get_long_pointerB8ne180100Ev, symObjAddr: 0x9EC, symBinAddr: 0x100002B74, symSize: 0x28 }
  - { offset: 0x5A83, size: 0x8, addend: 0x0, symName: __ZNKSt3__112basic_stringIcNS_11char_traitsIcEENS_9allocatorIcEEE19__get_short_pointerB8ne180100Ev, symObjAddr: 0xA14, symBinAddr: 0x100002B9C, symSize: 0x28 }
  - { offset: 0x5AA7, size: 0x8, addend: 0x0, symName: __ZNSt3__114pointer_traitsIPKcE10pointer_toB8ne180100ERS1_, symObjAddr: 0xA3C, symBinAddr: 0x100002BC4, symSize: 0x14 }
  - { offset: 0x5AC9, size: 0x8, addend: 0x0, symName: __ZNSt3__111char_traitsIcE6lengthB8ne180100EPKc, symObjAddr: 0xC50, symBinAddr: 0x100002DD8, symSize: 0x48 }
  - { offset: 0x5B09, size: 0x8, addend: 0x0, symName: __ZNKSt3__113basic_ostreamIcNS_11char_traitsIcEEE6sentrycvbB8ne180100Ev, symObjAddr: 0xC98, symBinAddr: 0x100002E20, symSize: 0x1C }
  - { offset: 0x5B2D, size: 0x8, addend: 0x0, symName: __ZNSt3__119ostreambuf_iteratorIcNS_11char_traitsIcEEEC1B8ne180100ERNS_13basic_ostreamIcS2_EE, symObjAddr: 0xEFC, symBinAddr: 0x100003084, symSize: 0x34 }
  - { offset: 0x5B63, size: 0x8, addend: 0x0, symName: __ZNKSt3__18ios_base5flagsB8ne180100Ev, symObjAddr: 0xF30, symBinAddr: 0x1000030B8, symSize: 0x18 }
  - { offset: 0x5B89, size: 0x8, addend: 0x0, symName: __ZNKSt3__19basic_iosIcNS_11char_traitsIcEEE4fillB8ne180100Ev, symObjAddr: 0xF48, symBinAddr: 0x1000030D0, symSize: 0x64 }
  - { offset: 0x5BAF, size: 0x8, addend: 0x0, symName: __ZNKSt3__119ostreambuf_iteratorIcNS_11char_traitsIcEEE6failedB8ne180100Ev, symObjAddr: 0xFAC, symBinAddr: 0x100003134, symSize: 0x24 }
  - { offset: 0x5BD3, size: 0x8, addend: 0x0, symName: __ZNSt3__19basic_iosIcNS_11char_traitsIcEEE8setstateB8ne180100Ej, symObjAddr: 0xFD0, symBinAddr: 0x100003158, symSize: 0x2C }
  - { offset: 0x5C06, size: 0x8, addend: 0x0, symName: __ZNKSt3__18ios_base5widthB8ne180100Ev, symObjAddr: 0xFFC, symBinAddr: 0x100003184, symSize: 0x18 }
  - { offset: 0x5C2C, size: 0x8, addend: 0x0, symName: __ZNSt3__115basic_streambufIcNS_11char_traitsIcEEE5sputnB8ne180100EPKcl, symObjAddr: 0x1014, symBinAddr: 0x10000319C, symSize: 0x3C }
  - { offset: 0x5C6C, size: 0x8, addend: 0x0, symName: __ZNSt3__112basic_stringIcNS_11char_traitsIcEENS_9allocatorIcEEEC1B8ne180100Emc, symObjAddr: 0x1050, symBinAddr: 0x1000031D8, symSize: 0x3C }
  - { offset: 0x5CB2, size: 0x8, addend: 0x0, symName: __ZNSt3__18ios_base5widthB8ne180100El, symObjAddr: 0x108C, symBinAddr: 0x100003214, symSize: 0x2C }
  - { offset: 0x5CF6, size: 0x8, addend: 0x0, symName: __ZNSt3__112basic_stringIcNS_11char_traitsIcEENS_9allocatorIcEEEC2B8ne180100Emc, symObjAddr: 0x10B8, symBinAddr: 0x100003240, symSize: 0x4C }
  - { offset: 0x5D41, size: 0x8, addend: 0x0, symName: __ZNSt3__117__compressed_pairINS_12basic_stringIcNS_11char_traitsIcEENS_9allocatorIcEEE5__repES5_EC1B8ne180100INS_18__default_init_tagESA_EEOT_OT0_, symObjAddr: 0x1104, symBinAddr: 0x10000328C, symSize: 0x3C }
  - { offset: 0x5D97, size: 0x8, addend: 0x0, symName: __ZNSt3__117__compressed_pairINS_12basic_stringIcNS_11char_traitsIcEENS_9allocatorIcEEE5__repES5_EC2B8ne180100INS_18__default_init_tagESA_EEOT_OT0_, symObjAddr: 0x1140, symBinAddr: 0x1000032C8, symSize: 0x3C }
  - { offset: 0x5DED, size: 0x8, addend: 0x0, symName: __ZNSt3__122__compressed_pair_elemINS_12basic_stringIcNS_11char_traitsIcEENS_9allocatorIcEEE5__repELi0ELb0EEC2B8ne180100ENS_18__default_init_tagE, symObjAddr: 0x117C, symBinAddr: 0x100003304, symSize: 0x14 }
  - { offset: 0x5E1F, size: 0x8, addend: 0x0, symName: __ZNSt3__122__compressed_pair_elemINS_9allocatorIcEELi1ELb1EEC2B8ne180100ENS_18__default_init_tagE, symObjAddr: 0x1190, symBinAddr: 0x100003318, symSize: 0x2C }
  - { offset: 0x5E51, size: 0x8, addend: 0x0, symName: __ZNSt3__19allocatorIcEC2B8ne180100Ev, symObjAddr: 0x11BC, symBinAddr: 0x100003344, symSize: 0x2C }
  - { offset: 0x5E79, size: 0x8, addend: 0x0, symName: __ZNSt3__116__non_trivial_ifILb1ENS_9allocatorIcEEEC2B8ne180100Ev, symObjAddr: 0x11E8, symBinAddr: 0x100003370, symSize: 0x14 }
  - { offset: 0x5EA1, size: 0x8, addend: 0x0, symName: __ZNSt3__119ostreambuf_iteratorIcNS_11char_traitsIcEEEC2B8ne180100ERNS_13basic_ostreamIcS2_EE, symObjAddr: 0x11FC, symBinAddr: 0x100003384, symSize: 0x68 }
  - { offset: 0x5ED7, size: 0x8, addend: 0x0, symName: __ZNKSt3__19basic_iosIcNS_11char_traitsIcEEE5rdbufB8ne180100Ev, symObjAddr: 0x1264, symBinAddr: 0x1000033EC, symSize: 0x24 }
  - { offset: 0x5EFD, size: 0x8, addend: 0x0, symName: __ZNKSt3__18ios_base5rdbufB8ne180100Ev, symObjAddr: 0x1288, symBinAddr: 0x100003410, symSize: 0x18 }
  - { offset: 0x5F21, size: 0x8, addend: 0x0, symName: __ZNSt3__111char_traitsIcE11eq_int_typeB8ne180100Eii, symObjAddr: 0x12A0, symBinAddr: 0x100003428, symSize: 0x28 }
  - { offset: 0x5F53, size: 0x8, addend: 0x0, symName: __ZNSt3__111char_traitsIcE3eofB8ne180100Ev, symObjAddr: 0x12C8, symBinAddr: 0x100003450, symSize: 0x8 }
  - { offset: 0x5F66, size: 0x8, addend: 0x0, symName: __ZNKSt3__19basic_iosIcNS_11char_traitsIcEEE5widenB8ne180100Ec, symObjAddr: 0x12D0, symBinAddr: 0x100003458, symSize: 0x8C }
  - { offset: 0x5FDD, size: 0x8, addend: 0x0, symName: __ZNKSt3__15ctypeIcE5widenB8ne180100Ec, symObjAddr: 0x1388, symBinAddr: 0x100003510, symSize: 0x38 }
  - { offset: 0x6010, size: 0x8, addend: 0x0, symName: __ZNSt3__18ios_base8setstateB8ne180100Ej, symObjAddr: 0x13C0, symBinAddr: 0x100003548, symSize: 0x34 }
  - { offset: 0x6045, size: 0x8, addend: 0x0, symName: __ZN4UserC1ERKNSt3__112basic_stringIcNS0_11char_traitsIcEENS0_9allocatorIcEEEES8_S8_S8_, symObjAddr: 0x1418, symBinAddr: 0x1000035A0, symSize: 0x4C }
  - { offset: 0x60A5, size: 0x8, addend: 0x0, symName: __ZN4UserC2ERKNSt3__112basic_stringIcNS0_11char_traitsIcEENS0_9allocatorIcEEEES8_S8_S8_, symObjAddr: 0x1464, symBinAddr: 0x1000035EC, symSize: 0xF0 }
  - { offset: 0x6105, size: 0x8, addend: 0x0, symName: __ZN14UserManagementD2Ev, symObjAddr: 0x1554, symBinAddr: 0x1000036DC, symSize: 0x2C }
  - { offset: 0x612F, size: 0x8, addend: 0x0, symName: __ZN13InterfaceUserD2Ev, symObjAddr: 0x1580, symBinAddr: 0x100003708, symSize: 0x14 }
  - { offset: 0x6157, size: 0x8, addend: 0x0, symName: __ZN12EmailServiceC2EP4User, symObjAddr: 0x1594, symBinAddr: 0x10000371C, symSize: 0x48 }
  - { offset: 0x618D, size: 0x8, addend: 0x0, symName: __ZN6IEmailC2Ev, symObjAddr: 0x15DC, symBinAddr: 0x100003764, symSize: 0x24 }
  - { offset: 0x61B7, size: 0x8, addend: 0x0, symName: __ZNK12EmailService9sendEmailERKNSt3__112basic_stringIcNS0_11char_traitsIcEENS0_9allocatorIcEEEE, symObjAddr: 0x1600, symBinAddr: 0x100003788, symSize: 0x88 }
  - { offset: 0x61E9, size: 0x8, addend: 0x0, symName: __ZN12EmailServiceD1Ev, symObjAddr: 0x1688, symBinAddr: 0x100003810, symSize: 0x2C }
  - { offset: 0x6213, size: 0x8, addend: 0x0, symName: __ZN12EmailServiceD0Ev, symObjAddr: 0x16B4, symBinAddr: 0x10000383C, symSize: 0x58 }
  - { offset: 0x623D, size: 0x8, addend: 0x0, symName: __ZN6IEmailD1Ev, symObjAddr: 0x170C, symBinAddr: 0x100003894, symSize: 0x14 }
  - { offset: 0x6265, size: 0x8, addend: 0x0, symName: __ZN6IEmailD0Ev, symObjAddr: 0x1720, symBinAddr: 0x1000038A8, symSize: 0xC }
  - { offset: 0x628D, size: 0x8, addend: 0x0, symName: __ZNSt3__113basic_ostreamIcNS_11char_traitsIcEEElsB8ne180100EPFRS3_S4_E, symObjAddr: 0x1778, symBinAddr: 0x100003900, symSize: 0x2C }
  - { offset: 0x62BF, size: 0x8, addend: 0x0, symName: __ZN12EmailServiceD2Ev, symObjAddr: 0x17FC, symBinAddr: 0x100003984, symSize: 0x2C }
  - { offset: 0x62E9, size: 0x8, addend: 0x0, symName: __ZN6IEmailD2Ev, symObjAddr: 0x1828, symBinAddr: 0x1000039B0, symSize: 0x14 }
  - { offset: 0x6311, size: 0x8, addend: 0x0, symName: __ZN4UserD2Ev, symObjAddr: 0x183C, symBinAddr: 0x1000039C4, symSize: 0xCC }
  - { offset: 0x633B, size: 0x8, addend: 0x0, symName: __ZNSt3__112basic_stringIcNS_11char_traitsIcEENS_9allocatorIcEEEC2B8ne180100ILi0EEEPKc, symObjAddr: 0x1908, symBinAddr: 0x100003A90, symSize: 0x58 }
...
